target datalayout = "e-m:e-p270:32:32-p271:32:32-p272:64:64-i64:64-i128:128-f80:128-n8:16:32:64-S128"
target triple = "x86_64-pc-linux-gnu"

%struct._value_string_ext = type { ptr, i32, i32, ptr, ptr }
%struct._packet_info = type { ptr, ptr, i32, i32, %struct.nstime_t, %struct.nstime_t, %struct.nstime_t, i8, ptr, ptr, ptr, ptr, %struct._address, %struct._address, %struct._address, %struct._address, %struct._address, %struct._address, i32, ptr, i8, [3 x i8], %struct.anon, i32, i32, i32, i32, ptr, i8, ptr, ptr, i16, i16, i32, i32, i16, i32, i32, ptr, ptr, ptr, i8, i8, i16, i16, i16, i32, i16, i16, ptr, ptr, ptr, ptr, ptr, i32, i32 }
%struct.nstime_t = type { i64, i32 }
%struct._address = type { i32, i32, ptr, ptr }
%struct.anon = type { i8, [3 x i8] }

@hf_nfs3_ftype = internal global i32 0, align 4
@names_nfs_ftype3_ext = internal global %struct._value_string_ext { ptr @_try_val_to_str_ext_init, i32 0, i32 7, ptr @names_nfs_ftype3, ptr @.str.1568 }, align 8
@.str.2246 = private unnamed_addr constant [6 x i8] c"where\00", align 1
@.str.2336 = private unnamed_addr constant [15 x i8] c"dev_attributes\00", align 1
@.str.2337 = private unnamed_addr constant [5 x i8] c"spec\00", align 1
@.str.2338 = private unnamed_addr constant [16 x i8] c"pipe_attributes\00", align 1
@.str.2339 = private unnamed_addr constant [17 x i8] c"Unknown type: %u\00", align 1
@.str.2340 = private unnamed_addr constant [19 x i8] c", FH: 0x%08x/%s %s\00", align 1
@.str.2341 = private unnamed_addr constant [30 x i8] c", MKNOD Call FH: 0x%08x/%s %s\00", align 1

; Function Attrs: null_pointer_is_valid sspstrong uwtable
define internal i32 @dissect_ftype3(ptr noundef %0, i32 noundef %1, ptr noundef %2, i32 noundef %3, ptr noundef %4) #0 {
  %6 = alloca ptr, align 8
  %7 = alloca i32, align 4
  %8 = alloca ptr, align 8
  %9 = alloca i32, align 4
  %10 = alloca ptr, align 8
  %11 = alloca i32, align 4
  store ptr %0, ptr %6, align 8
  store i32 %1, ptr %7, align 4
  store ptr %2, ptr %8, align 8
  store i32 %3, ptr %9, align 4
  store ptr %4, ptr %10, align 8
  call void @llvm.lifetime.start.p0(i64 4, ptr %11) #16
  %12 = load ptr, ptr %8, align 8
  %13 = load i32, ptr %9, align 4
  %14 = load ptr, ptr %6, align 8
  %15 = load i32, ptr %7, align 4
  %16 = call ptr @proto_tree_add_item_ret_uint(ptr noundef %12, i32 noundef %13, ptr noundef %14, i32 noundef %15, i32 noundef 4, i32 noundef 0, ptr noundef %11)
  %17 = load i32, ptr %7, align 4
  %18 = add i32 %17, 4
  store i32 %18, ptr %7, align 4
  %19 = load i32, ptr %11, align 4
  %20 = load ptr, ptr %10, align 8
  store i32 %19, ptr %20, align 4
  %21 = load i32, ptr %7, align 4
  call void @llvm.lifetime.end.p0(i64 4, ptr %11) #16
  ret i32 %21
}

; Function Attrs: null_pointer_is_valid sspstrong uwtable
define internal i32 @dissect_nfs3_mknod_call(ptr noundef %0, ptr noundef %1, ptr noundef %2, ptr noundef %3) #0 {
  %5 = alloca ptr, align 8
  %6 = alloca ptr, align 8
  %7 = alloca ptr, align 8
  %8 = alloca ptr, align 8
  %9 = alloca i32, align 4
  %10 = alloca i32, align 4
  %11 = alloca ptr, align 8
  %12 = alloca ptr, align 8
  %13 = alloca i32, align 4
  store ptr %0, ptr %5, align 8
  store ptr %1, ptr %6, align 8
  store ptr %2, ptr %7, align 8
  store ptr %3, ptr %8, align 8
  call void @llvm.lifetime.start.p0(i64 4, ptr %9) #16
  call void @llvm.lifetime.start.p0(i64 4, ptr %10) #16
  store i32 0, ptr %10, align 4
  call void @llvm.lifetime.start.p0(i64 8, ptr %11) #16
  store ptr null, ptr %11, align 8
  call void @llvm.lifetime.start.p0(i64 8, ptr %12) #16
  call void @llvm.lifetime.start.p0(i64 4, ptr %13) #16
  store i32 0, ptr %13, align 4
  %14 = load ptr, ptr %5, align 8
  %15 = load i32, ptr %13, align 4
  %16 = load ptr, ptr %6, align 8
  %17 = load ptr, ptr %7, align 8
  %18 = load ptr, ptr %8, align 8
  %19 = call i32 @dissect_diropargs3(ptr noundef %14, i32 noundef %15, ptr noundef %16, ptr noundef %17, ptr noundef @.str.2246, ptr noundef %10, ptr noundef %11, ptr noundef %18)
  store i32 %19, ptr %13, align 4
  %20 = load ptr, ptr %5, align 8
  %21 = load i32, ptr %13, align 4
  %22 = load ptr, ptr %7, align 8
  %23 = load i32, ptr @hf_nfs3_ftype, align 4
  %24 = call i32 @dissect_ftype3(ptr noundef %20, i32 noundef %21, ptr noundef %22, i32 noundef %23, ptr noundef %9)
  store i32 %24, ptr %13, align 4
  %25 = load i32, ptr %9, align 4
  switch i32 %25, label %40 [
    i32 4, label %26
    i32 3, label %26
    i32 6, label %35
    i32 7, label %35
  ]

26:                                               ; preds = %4, %4
  %27 = load ptr, ptr %5, align 8
  %28 = load i32, ptr %13, align 4
  %29 = load ptr, ptr %7, align 8
  %30 = call i32 @dissect_nfs3_sattr(ptr noundef %27, i32 noundef %28, ptr noundef %29, ptr noundef @.str.2336)
  store i32 %30, ptr %13, align 4
  %31 = load ptr, ptr %5, align 8
  %32 = load i32, ptr %13, align 4
  %33 = load ptr, ptr %7, align 8
  %34 = call i32 @dissect_nfs3_specdata(ptr noundef %31, i32 noundef %32, ptr noundef %33, ptr noundef @.str.2337)
  store i32 %34, ptr %13, align 4
  br label %41

35:                                               ; preds = %4, %4
  %36 = load ptr, ptr %5, align 8
  %37 = load i32, ptr %13, align 4
  %38 = load ptr, ptr %7, align 8
  %39 = call i32 @dissect_nfs3_sattr(ptr noundef %36, i32 noundef %37, ptr noundef %38, ptr noundef @.str.2338)
  store i32 %39, ptr %13, align 4
  br label %41

40:                                               ; preds = %4
  br label %41

41:                                               ; preds = %40, %35, %26
  %42 = load i32, ptr %9, align 4
  %43 = call ptr @val_to_str_ext(i32 noundef %42, ptr noundef @names_nfs_ftype3_ext, ptr noundef @.str.2339)
  store ptr %43, ptr %12, align 8
  %44 = load ptr, ptr %6, align 8
  %45 = getelementptr inbounds nuw %struct._packet_info, ptr %44, i32 0, i32 1
  %46 = load ptr, ptr %45, align 8
  %47 = load i32, ptr %10, align 4
  %48 = load ptr, ptr %11, align 8
  %49 = load ptr, ptr %12, align 8
  call void (ptr, i32, ptr, ...) @col_append_fstr(ptr noundef %46, i32 noundef 25, ptr noundef @.str.2340, i32 noundef %47, ptr noundef %48, ptr noundef %49)
  %50 = load ptr, ptr %7, align 8
  %51 = load i32, ptr %10, align 4
  %52 = load ptr, ptr %11, align 8
  %53 = load ptr, ptr %12, align 8
  call void (ptr, ptr, ...) @proto_item_append_text(ptr noundef %50, ptr noundef @.str.2341, i32 noundef %51, ptr noundef %52, ptr noundef %53)
  %54 = load i32, ptr %13, align 4
  call void @llvm.lifetime.end.p0(i64 4, ptr %13) #16
  call void @llvm.lifetime.end.p0(i64 8, ptr %12) #16
  call void @llvm.lifetime.end.p0(i64 8, ptr %11) #16
  call void @llvm.lifetime.end.p0(i64 4, ptr %10) #16
  call void @llvm.lifetime.end.p0(i64 4, ptr %9) #16
  ret i32 %54
}