; Function Attrs: null_pointer_is_valid sspstrong uwtable
define internal i32 @dissect_nfs3_mknod_call(ptr noundef %0, ptr noundef %1, ptr noundef %2, ptr noundef readonly captures(none) %3) #0 {
  %5 = alloca i32, align 4
  %6 = alloca i32, align 4
  %7 = alloca ptr, align 8
  call void @llvm.lifetime.start.p0(i64 4, ptr nonnull %6) #22
  store i32 0, ptr %6, align 4
  call void @llvm.lifetime.start.p0(i64 8, ptr nonnull %7) #22
  store ptr null, ptr %7, align 8
  %8 = call fastcc i32 @dissect_diropargs3(ptr noundef %0, i32 noundef 0, ptr noundef %1, ptr noundef %2, ptr noundef nonnull @.str.2246, ptr noundef nonnull %6, ptr noundef nonnull %7, ptr noundef %3)
  %9 = load i32, ptr @hf_nfs3_ftype, align 4
  call void @llvm.lifetime.start.p0(i64 4, ptr nonnull %5) #22
  %10 = call ptr @proto_tree_add_item_ret_uint(ptr noundef %2, i32 noundef %9, ptr noundef %0, i32 noundef %8, i32 noundef 4, i32 noundef 0, ptr noundef nonnull %5)
  %11 = add i32 %8, 4
  %12 = load i32, ptr %5, align 4
  call void @llvm.lifetime.end.p0(i64 4, ptr nonnull %5) #22
  switch i32 %12, label %18 [
    i32 4, label %13
    i32 3, label %13
    i32 6, label %16
    i32 7, label %16
  ]

13:                                               ; preds = %4, %4
  %14 = call fastcc i32 @dissect_nfs3_sattr(ptr noundef %0, i32 noundef %11, ptr noundef %2, ptr noundef nonnull @.str.2336)
  %15 = call fastcc i32 @dissect_nfs3_specdata(ptr noundef %0, i32 noundef %14, ptr noundef %2, ptr noundef nonnull @.str.2337)
  br label %18

16:                                               ; preds = %4, %4
  %17 = call fastcc i32 @dissect_nfs3_sattr(ptr noundef %0, i32 noundef %11, ptr noundef %2, ptr noundef nonnull @.str.2338)
  br label %18

18:                                               ; preds = %4, %16, %13
  %.0 = phi i32 [ %11, %4 ], [ %17, %16 ], [ %15, %13 ]
  %19 = call ptr @val_to_str_ext(i32 noundef %12, ptr noundef nonnull @names_nfs_ftype3_ext, ptr noundef nonnull @.str.2339)
  %20 = getelementptr inbounds nuw i8, ptr %1, i64 8
  %21 = load ptr, ptr %20, align 8
  %22 = load i32, ptr %6, align 4
  %23 = load ptr, ptr %7, align 8
  call void (ptr, i32, ptr, ...) @col_append_fstr(ptr noundef %21, i32 noundef 25, ptr noundef nonnull @.str.2340, i32 noundef %22, ptr noundef %23, ptr noundef %19)
  %24 = load i32, ptr %6, align 4
  %25 = load ptr, ptr %7, align 8
  call void (ptr, ptr, ...) @proto_item_append_text(ptr noundef %2, ptr noundef nonnull @.str.2341, i32 noundef %24, ptr noundef %25, ptr noundef %19)
  call void @llvm.lifetime.end.p0(i64 8, ptr nonnull %7) #22
  call void @llvm.lifetime.end.p0(i64 4, ptr nonnull %6) #22
  ret i32 %.0
}